target datalayout = "e-m:e-p270:32:32-p271:32:32-p272:64:64-i64:64-i128:128-f80:128-n8:16:32:64-S128"
target triple = "x86_64-pc-linux-gnu"

; Function Attrs: nounwind uwtable
define i32 @wc_Sha224Update(ptr noundef %0, ptr noundef %1, i32 noundef %2) #0 {
  %4 = alloca i32, align 4
  %5 = alloca ptr, align 8
  %6 = alloca ptr, align 8
  %7 = alloca i32, align 4
  %8 = alloca i32, align 4
  %9 = alloca i32, align 4
  store ptr %0, ptr %5, align 8, !tbaa !3
  store ptr %1, ptr %6, align 8, !tbaa !16
  store i32 %2, ptr %7, align 4, !tbaa !9
  call void @llvm.lifetime.start.p0(i64 4, ptr %8) #5
  %10 = load ptr, ptr %5, align 8, !tbaa !3
  %11 = icmp eq ptr %10, null
  br i1 %11, label %12, label %13

12:                                               ; preds = %3
  store i32 -173, ptr %4, align 4
  store i32 1, ptr %9, align 4
  br label %30

13:                                               ; preds = %3
  %14 = load ptr, ptr %6, align 8, !tbaa !16
  %15 = icmp eq ptr %14, null
  br i1 %15, label %16, label %20

16:                                               ; preds = %13
  %17 = load i32, ptr %7, align 4, !tbaa !9
  %18 = icmp eq i32 %17, 0
  br i1 %18, label %19, label %20

19:                                               ; preds = %16
  store i32 0, ptr %4, align 4
  store i32 1, ptr %9, align 4
  br label %30

20:                                               ; preds = %16, %13
  %21 = load ptr, ptr %6, align 8, !tbaa !16
  %22 = icmp eq ptr %21, null
  br i1 %22, label %23, label %24

23:                                               ; preds = %20
  store i32 -173, ptr %4, align 4
  store i32 1, ptr %9, align 4
  br label %30

24:                                               ; preds = %20
  %25 = load ptr, ptr %5, align 8, !tbaa !3
  %26 = load ptr, ptr %6, align 8, !tbaa !16
  %27 = load i32, ptr %7, align 4, !tbaa !9
  %28 = call i32 @Sha256Update(ptr noundef %25, ptr noundef %26, i32 noundef %27)
  store i32 %28, ptr %8, align 4, !tbaa !9
  %29 = load i32, ptr %8, align 4, !tbaa !9
  store i32 %29, ptr %4, align 4
  store i32 1, ptr %9, align 4
  br label %30

30:                                               ; preds = %24, %23, %19, %12
  call void @llvm.lifetime.end.p0(i64 4, ptr %8) #5
  %31 = load i32, ptr %4, align 4
  ret i32 %31
}